target datalayout = "e-m:e-p270:32:32-p271:32:32-p272:64:64-i64:64-i128:128-f80:128-n8:16:32:64-S128"
target triple = "x86_64-unknown-linux-gnu"

%"class.net::QuicConfigValue" = type { ptr, i32, i32 }
%"class.net::QuicFixedUint32" = type <{ %"class.net::QuicConfigValue", i32, i8, [3 x i8], i32, i8, [3 x i8] }>

; Function Attrs: mustprogress uwtable
define dso_local void @_ZNK3net15QuicFixedUint3218ToHandshakeMessageEPNS_22CryptoHandshakeMessageE(ptr noundef nonnull align 8 dereferenceable(29) %this, ptr noundef %out) unnamed_addr #0 align 2 {
entry:
  %this.addr = alloca ptr, align 8
  %out.addr = alloca ptr, align 8
  store ptr %this, ptr %this.addr, align 8
  store ptr %out, ptr %out.addr, align 8
  %this1 = load ptr, ptr %this.addr, align 8
  %has_send_value_ = getelementptr inbounds %"class.net::QuicFixedUint32", ptr %this1, i32 0, i32 2
  %0 = load i8, ptr %has_send_value_, align 4
  %tobool = trunc i8 %0 to i1
  br i1 %tobool, label %if.then, label %if.end

if.then:                                          ; preds = %entry
  %1 = load ptr, ptr %out.addr, align 8
  %tag_ = getelementptr inbounds %"class.net::QuicConfigValue", ptr %this1, i32 0, i32 1
  %2 = load i32, ptr %tag_, align 8
  %send_value_ = getelementptr inbounds %"class.net::QuicFixedUint32", ptr %this1, i32 0, i32 1
  call void @_ZN3net22CryptoHandshakeMessage8SetValueIjEEvjRKT_(ptr noundef nonnull align 8 dereferenceable(72) %1, i32 noundef %2, ptr noundef nonnull align 4 dereferenceable(4) %send_value_)
  br label %if.end

if.end:                                           ; preds = %if.then, %entry
  ret void
}