; Function Attrs: mustprogress uwtable
define dso_local void @_ZNK3net15QuicFixedUint3218ToHandshakeMessageEPNS_22CryptoHandshakeMessageE(ptr noundef nonnull align 8 dereferenceable(29) %this, ptr noundef %out) unnamed_addr #0 align 2 {
entry:
  %has_send_value_ = getelementptr inbounds i8, ptr %this, i64 20
  %0 = load i8, ptr %has_send_value_, align 4
  %1 = and i8 %0, 1
  %tobool.not = icmp eq i8 %1, 0
  br i1 %tobool.not, label %if.end, label %if.then

if.then:                                          ; preds = %entry
  %tag_ = getelementptr inbounds i8, ptr %this, i64 8
  %2 = load i32, ptr %tag_, align 8
  %send_value_ = getelementptr inbounds i8, ptr %this, i64 16
  tail call void @_ZN3net22CryptoHandshakeMessage8SetValueIjEEvjRKT_(ptr noundef nonnull align 8 dereferenceable(72) %out, i32 noundef %2, ptr noundef nonnull align 4 dereferenceable(4) %send_value_)
  br label %if.end

if.end:                                           ; preds = %if.then, %entry
  ret void
}